target datalayout = "e-m:e-p270:32:32-p271:32:32-p272:64:64-i64:64-i128:128-f80:128-n8:16:32:64-S128"
target triple = "x86_64-pc-linux-gnu"

%struct.rb_data_type_struct = type { ptr, %struct.anon, ptr, ptr, i64 }
%struct.anon = type { ptr, ptr, ptr, ptr, [1 x ptr] }

@eEC_GROUP = internal global i64 0, align 8
@ossl_ec_group_type = internal constant %struct.rb_data_type_struct { ptr @.str.61, %struct.anon { ptr null, ptr @ossl_ec_group_free, ptr null, ptr null, [1 x ptr] zeroinitializer }, ptr null, ptr null, i64 33 }, align 8
@.str.59 = private unnamed_addr constant [28 x i8] c"EC_GROUP is not initialized\00", align 1
@.str.89 = private unnamed_addr constant [22 x i8] c"EC_GROUP_get_cofactor\00", align 1

; Function Attrs: nounwind sspstrong uwtable
define internal i64 @ossl_ec_group_get_cofactor(i64 noundef %0) #0 {
  %2 = alloca i64, align 8
  %3 = alloca i64, align 8
  %4 = alloca ptr, align 8
  %5 = alloca ptr, align 8
  store i64 %0, ptr %2, align 8, !tbaa !6
  call void @llvm.lifetime.start.p0(i64 8, ptr %3) #19
  call void @llvm.lifetime.start.p0(i64 8, ptr %4) #19
  call void @llvm.lifetime.start.p0(i64 8, ptr %5) #19
  store ptr null, ptr %5, align 8, !tbaa !33
  br label %6

6:                                                ; preds = %1
  %7 = load i64, ptr %2, align 8, !tbaa !6
  %8 = call ptr @rb_check_typeddata(i64 noundef %7, ptr noundef @ossl_ec_group_type)
  store ptr %8, ptr %5, align 8, !tbaa !33
  %9 = load ptr, ptr %5, align 8, !tbaa !33
  %10 = icmp eq ptr %9, null
  br i1 %10, label %11, label %13

11:                                               ; preds = %6
  %12 = load i64, ptr @eEC_GROUP, align 8, !tbaa !6
  call void (i64, ptr, ...) @ossl_raise(i64 noundef %12, ptr noundef @.str.59) #20
  unreachable

13:                                               ; preds = %6
  br label %14

14:                                               ; preds = %13
  br label %15

15:                                               ; preds = %14
  %16 = call i64 @ossl_bn_new(ptr noundef null)
  store i64 %16, ptr %3, align 8, !tbaa !6
  %17 = call ptr @ossl_bn_value_ptr(ptr noundef %3)
  store ptr %17, ptr %4, align 8, !tbaa !35
  %18 = load ptr, ptr %5, align 8, !tbaa !33
  %19 = load ptr, ptr %4, align 8, !tbaa !35
  %20 = call ptr @ossl_bn_ctx_get()
  %21 = call i32 @EC_GROUP_get_cofactor(ptr noundef %18, ptr noundef %19, ptr noundef %20)
  %22 = icmp ne i32 %21, 1
  br i1 %22, label %23, label %25

23:                                               ; preds = %15
  %24 = load i64, ptr @eEC_GROUP, align 8, !tbaa !6
  call void (i64, ptr, ...) @ossl_raise(i64 noundef %24, ptr noundef @.str.89) #20
  unreachable

25:                                               ; preds = %15
  %26 = load i64, ptr %3, align 8, !tbaa !6
  call void @llvm.lifetime.end.p0(i64 8, ptr %5) #19
  call void @llvm.lifetime.end.p0(i64 8, ptr %4) #19
  call void @llvm.lifetime.end.p0(i64 8, ptr %3) #19
  ret i64 %26
}